; Function Attrs: mustprogress uwtable
define dso_local void @_ZN18ExpressionVariableC2ERK8VariablePK4Type(ptr noundef nonnull align 8 dereferenceable(40) %0, ptr noundef nonnull align 8 dereferenceable(200) %1, ptr noundef %2) unnamed_addr #3 align 2 {
  tail call void @_ZN10ExpressionC2E9eTermType(ptr noundef nonnull align 8 dereferenceable(24) %0, i32 noundef 1)
  store ptr getelementptr inbounds ({ [24 x ptr] }, ptr @_ZTV18ExpressionVariable, i64 0, i32 0, i64 2), ptr %0, align 8
  %4 = getelementptr inbounds i8, ptr %0, i64 24
  store ptr %1, ptr %4, align 8
  %5 = getelementptr inbounds i8, ptr %0, i64 32
  store ptr %2, ptr %5, align 8
  ret void
}